target datalayout = "e-m:e-p270:32:32-p271:32:32-p272:64:64-i64:64-i128:128-f80:128-n8:16:32:64-S128"
target triple = "x86_64-pc-linux-gnu"

%struct._zend_refcounted_h = type { i32, %union.anon }
%union.anon = type { i32 }
%struct._zval_struct = type { %union._zend_value, %union.anon.3, %union.anon.6 }
%union._zend_value = type { i64 }
%union.anon.3 = type { i32 }
%union.anon.6 = type { i32 }
%struct._zend_string = type { %struct._zend_refcounted_h, i64, i64, [1 x i8] }
%struct._phar_metadata_tracker = type { %struct._zval_struct, ptr }
%struct.anon.4 = type { i8, i8, %union.anon.5 }
%union.anon.5 = type { i16 }

; Function Attrs: nounwind uwtable
define hidden void @phar_metadata_tracker_clone(ptr noundef %0) #0 {
  %2 = alloca ptr, align 8
  %3 = alloca i32, align 4
  %4 = alloca i64, align 8
  %5 = alloca i8, align 1
  %6 = alloca ptr, align 8
  %7 = alloca i32, align 4
  %8 = alloca ptr, align 8
  %9 = alloca i64, align 8
  %10 = alloca i8, align 1
  %11 = alloca ptr, align 8
  %12 = alloca ptr, align 8
  %13 = alloca ptr, align 8
  %14 = alloca i8, align 1
  %15 = alloca ptr, align 8
  %16 = alloca ptr, align 8
  %17 = alloca ptr, align 8
  store ptr %0, ptr %17, align 8
  br label %18

18:                                               ; preds = %1
  %19 = load ptr, ptr %17, align 8
  %20 = getelementptr inbounds %struct._phar_metadata_tracker, ptr %19, i32 0, i32 0
  %21 = getelementptr inbounds %struct._zval_struct, ptr %20, i32 0, i32 1
  %22 = getelementptr inbounds %struct.anon.4, ptr %21, i32 0, i32 1
  %23 = load i8, ptr %22, align 1
  %24 = zext i8 %23 to i32
  %25 = icmp ne i32 %24, 0
  br i1 %25, label %26, label %40

26:                                               ; preds = %18
  %27 = load ptr, ptr %17, align 8
  %28 = getelementptr inbounds %struct._phar_metadata_tracker, ptr %27, i32 0, i32 0
  store ptr %28, ptr %16, align 8
  %29 = load ptr, ptr %16, align 8
  %30 = getelementptr inbounds %struct._zval_struct, ptr %29, i32 0, i32 1
  %31 = getelementptr inbounds %struct.anon.4, ptr %30, i32 0, i32 1
  %32 = load i8, ptr %31, align 1
  %33 = zext i8 %32 to i32
  %34 = icmp ne i32 %33, 0
  call void @llvm.assume(i1 %34)
  %35 = load ptr, ptr %16, align 8
  %36 = load ptr, ptr %35, align 8
  store ptr %36, ptr %15, align 8
  %37 = load ptr, ptr %15, align 8
  %38 = load i32, ptr %37, align 4
  %39 = add i32 %38, 1
  store i32 %39, ptr %37, align 4
  br label %40

40:                                               ; preds = %26, %18
  br label %41

41:                                               ; preds = %40
  %42 = load ptr, ptr %17, align 8
  %43 = getelementptr inbounds %struct._phar_metadata_tracker, ptr %42, i32 0, i32 1
  %44 = load ptr, ptr %43, align 8
  %45 = icmp ne ptr %44, null
  br i1 %45, label %46, label %516

46:                                               ; preds = %41
  %47 = load ptr, ptr %17, align 8
  %48 = getelementptr inbounds %struct._phar_metadata_tracker, ptr %47, i32 0, i32 1
  %49 = load ptr, ptr %48, align 8
  store ptr %49, ptr %13, align 8
  store i8 0, ptr %14, align 1
  %50 = load ptr, ptr %13, align 8
  %51 = getelementptr inbounds %struct._zend_refcounted_h, ptr %50, i32 0, i32 1
  %52 = load i32, ptr %51, align 4
  store i32 %52, ptr %7, align 4
  %53 = load i32, ptr %7, align 4
  %54 = and i32 %53, 1008
  %55 = and i32 %54, 64
  %56 = icmp ne i32 %55, 0
  br i1 %56, label %57, label %59

57:                                               ; preds = %46
  %58 = load ptr, ptr %13, align 8
  store ptr %58, ptr %12, align 8
  br label %512

59:                                               ; preds = %46
  %60 = load ptr, ptr %13, align 8
  %61 = getelementptr inbounds %struct._zend_string, ptr %60, i32 0, i32 3
  %62 = load ptr, ptr %13, align 8
  %63 = getelementptr inbounds %struct._zend_string, ptr %62, i32 0, i32 2
  %64 = load i64, ptr %63, align 8
  %65 = load i8, ptr %14, align 1
  %66 = trunc i8 %65 to i1
  store ptr %61, ptr %8, align 8
  store i64 %64, ptr %9, align 8
  %67 = zext i1 %66 to i8
  store i8 %67, ptr %10, align 1
  %68 = load i64, ptr %9, align 8
  %69 = load i8, ptr %10, align 1
  %70 = trunc i8 %69 to i1
  store i64 %68, ptr %4, align 8
  %71 = zext i1 %70 to i8
  store i8 %71, ptr %5, align 1
  %72 = load i8, ptr %5, align 1
  %73 = trunc i8 %72 to i1
  br i1 %73, label %74, label %82

74:                                               ; preds = %59
  %75 = load i64, ptr %4, align 8
  %76 = add i64 24, %75
  %77 = add i64 %76, 1
  %78 = add i64 %77, 8
  %79 = sub i64 %78, 1
  %80 = and i64 %79, -8
  %81 = call noalias ptr @__zend_malloc(i64 noundef %80) #15
  br label %486

82:                                               ; preds = %59
  %83 = load i64, ptr %4, align 8
  %84 = add i64 24, %83
  %85 = add i64 %84, 1
  %86 = add i64 %85, 8
  %87 = sub i64 %86, 1
  %88 = and i64 %87, -8
  %89 = call i1 @llvm.is.constant.i64(i64 %88)
  br i1 %89, label %90, label %476

90:                                               ; preds = %82
  %91 = load i64, ptr %4, align 8
  %92 = add i64 24, %91
  %93 = add i64 %92, 1
  %94 = add i64 %93, 8
  %95 = sub i64 %94, 1
  %96 = and i64 %95, -8
  %97 = icmp ule i64 %96, 8
  br i1 %97, label %98, label %100

98:                                               ; preds = %90
  %99 = call noalias ptr @_emalloc_8() #13
  br label %474

100:                                              ; preds = %90
  %101 = load i64, ptr %4, align 8
  %102 = add i64 24, %101
  %103 = add i64 %102, 1
  %104 = add i64 %103, 8
  %105 = sub i64 %104, 1
  %106 = and i64 %105, -8
  %107 = icmp ule i64 %106, 16
  br i1 %107, label %108, label %110

108:                                              ; preds = %100
  %109 = call noalias ptr @_emalloc_16() #13
  br label %472

110:                                              ; preds = %100
  %111 = load i64, ptr %4, align 8
  %112 = add i64 24, %111
  %113 = add i64 %112, 1
  %114 = add i64 %113, 8
  %115 = sub i64 %114, 1
  %116 = and i64 %115, -8
  %117 = icmp ule i64 %116, 24
  br i1 %117, label %118, label %120

118:                                              ; preds = %110
  %119 = call noalias ptr @_emalloc_24() #13
  br label %470

120:                                              ; preds = %110
  %121 = load i64, ptr %4, align 8
  %122 = add i64 24, %121
  %123 = add i64 %122, 1
  %124 = add i64 %123, 8
  %125 = sub i64 %124, 1
  %126 = and i64 %125, -8
  %127 = icmp ule i64 %126, 32
  br i1 %127, label %128, label %130

128:                                              ; preds = %120
  %129 = call noalias ptr @_emalloc_32() #13
  br label %468

130:                                              ; preds = %120
  %131 = load i64, ptr %4, align 8
  %132 = add i64 24, %131
  %133 = add i64 %132, 1
  %134 = add i64 %133, 8
  %135 = sub i64 %134, 1
  %136 = and i64 %135, -8
  %137 = icmp ule i64 %136, 40
  br i1 %137, label %138, label %140

138:                                              ; preds = %130
  %139 = call noalias ptr @_emalloc_40() #13
  br label %466

140:                                              ; preds = %130
  %141 = load i64, ptr %4, align 8
  %142 = add i64 24, %141
  %143 = add i64 %142, 1
  %144 = add i64 %143, 8
  %145 = sub i64 %144, 1
  %146 = and i64 %145, -8
  %147 = icmp ule i64 %146, 48
  br i1 %147, label %148, label %150

148:                                              ; preds = %140
  %149 = call noalias ptr @_emalloc_48() #13
  br label %464

150:                                              ; preds = %140
  %151 = load i64, ptr %4, align 8
  %152 = add i64 24, %151
  %153 = add i64 %152, 1
  %154 = add i64 %153, 8
  %155 = sub i64 %154, 1
  %156 = and i64 %155, -8
  %157 = icmp ule i64 %156, 56
  br i1 %157, label %158, label %160

158:                                              ; preds = %150
  %159 = call noalias ptr @_emalloc_56() #13
  br label %462

160:                                              ; preds = %150
  %161 = load i64, ptr %4, align 8
  %162 = add i64 24, %161
  %163 = add i64 %162, 1
  %164 = add i64 %163, 8
  %165 = sub i64 %164, 1
  %166 = and i64 %165, -8
  %167 = icmp ule i64 %166, 64
  br i1 %167, label %168, label %170

168:                                              ; preds = %160
  %169 = call noalias ptr @_emalloc_64() #13
  br label %460

170:                                              ; preds = %160
  %171 = load i64, ptr %4, align 8
  %172 = add i64 24, %171
  %173 = add i64 %172, 1
  %174 = add i64 %173, 8
  %175 = sub i64 %174, 1
  %176 = and i64 %175, -8
  %177 = icmp ule i64 %176, 80
  br i1 %177, label %178, label %180

178:                                              ; preds = %170
  %179 = call noalias ptr @_emalloc_80() #13
  br label %458

180:                                              ; preds = %170
  %181 = load i64, ptr %4, align 8
  %182 = add i64 24, %181
  %183 = add i64 %182, 1
  %184 = add i64 %183, 8
  %185 = sub i64 %184, 1
  %186 = and i64 %185, -8
  %187 = icmp ule i64 %186, 96
  br i1 %187, label %188, label %190

188:                                              ; preds = %180
  %189 = call noalias ptr @_emalloc_96() #13
  br label %456

190:                                              ; preds = %180
  %191 = load i64, ptr %4, align 8
  %192 = add i64 24, %191
  %193 = add i64 %192, 1
  %194 = add i64 %193, 8
  %195 = sub i64 %194, 1
  %196 = and i64 %195, -8
  %197 = icmp ule i64 %196, 112
  br i1 %197, label %198, label %200

198:                                              ; preds = %190
  %199 = call noalias ptr @_emalloc_112() #13
  br label %454

200:                                              ; preds = %190
  %201 = load i64, ptr %4, align 8
  %202 = add i64 24, %201
  %203 = add i64 %202, 1
  %204 = add i64 %203, 8
  %205 = sub i64 %204, 1
  %206 = and i64 %205, -8
  %207 = icmp ule i64 %206, 128
  br i1 %207, label %208, label %210

208:                                              ; preds = %200
  %209 = call noalias ptr @_emalloc_128() #13
  br label %452

210:                                              ; preds = %200
  %211 = load i64, ptr %4, align 8
  %212 = add i64 24, %211
  %213 = add i64 %212, 1
  %214 = add i64 %213, 8
  %215 = sub i64 %214, 1
  %216 = and i64 %215, -8
  %217 = icmp ule i64 %216, 160
  br i1 %217, label %218, label %220

218:                                              ; preds = %210
  %219 = call noalias ptr @_emalloc_160() #13
  br label %450

220:                                              ; preds = %210
  %221 = load i64, ptr %4, align 8
  %222 = add i64 24, %221
  %223 = add i64 %222, 1
  %224 = add i64 %223, 8
  %225 = sub i64 %224, 1
  %226 = and i64 %225, -8
  %227 = icmp ule i64 %226, 192
  br i1 %227, label %228, label %230

228:                                              ; preds = %220
  %229 = call noalias ptr @_emalloc_192() #13
  br label %448

230:                                              ; preds = %220
  %231 = load i64, ptr %4, align 8
  %232 = add i64 24, %231
  %233 = add i64 %232, 1
  %234 = add i64 %233, 8
  %235 = sub i64 %234, 1
  %236 = and i64 %235, -8
  %237 = icmp ule i64 %236, 224
  br i1 %237, label %238, label %240

238:                                              ; preds = %230
  %239 = call noalias ptr @_emalloc_224() #13
  br label %446

240:                                              ; preds = %230
  %241 = load i64, ptr %4, align 8
  %242 = add i64 24, %241
  %243 = add i64 %242, 1
  %244 = add i64 %243, 8
  %245 = sub i64 %244, 1
  %246 = and i64 %245, -8
  %247 = icmp ule i64 %246, 256
  br i1 %247, label %248, label %250

248:                                              ; preds = %240
  %249 = call noalias ptr @_emalloc_256() #13
  br label %444

250:                                              ; preds = %240
  %251 = load i64, ptr %4, align 8
  %252 = add i64 24, %251
  %253 = add i64 %252, 1
  %254 = add i64 %253, 8
  %255 = sub i64 %254, 1
  %256 = and i64 %255, -8
  %257 = icmp ule i64 %256, 320
  br i1 %257, label %258, label %260

258:                                              ; preds = %250
  %259 = call noalias ptr @_emalloc_320() #13
  br label %442

260:                                              ; preds = %250
  %261 = load i64, ptr %4, align 8
  %262 = add i64 24, %261
  %263 = add i64 %262, 1
  %264 = add i64 %263, 8
  %265 = sub i64 %264, 1
  %266 = and i64 %265, -8
  %267 = icmp ule i64 %266, 384
  br i1 %267, label %268, label %270

268:                                              ; preds = %260
  %269 = call noalias ptr @_emalloc_384() #13
  br label %440

270:                                              ; preds = %260
  %271 = load i64, ptr %4, align 8
  %272 = add i64 24, %271
  %273 = add i64 %272, 1
  %274 = add i64 %273, 8
  %275 = sub i64 %274, 1
  %276 = and i64 %275, -8
  %277 = icmp ule i64 %276, 448
  br i1 %277, label %278, label %280

278:                                              ; preds = %270
  %279 = call noalias ptr @_emalloc_448() #13
  br label %438

280:                                              ; preds = %270
  %281 = load i64, ptr %4, align 8
  %282 = add i64 24, %281
  %283 = add i64 %282, 1
  %284 = add i64 %283, 8
  %285 = sub i64 %284, 1
  %286 = and i64 %285, -8
  %287 = icmp ule i64 %286, 512
  br i1 %287, label %288, label %290

288:                                              ; preds = %280
  %289 = call noalias ptr @_emalloc_512() #13
  br label %436

290:                                              ; preds = %280
  %291 = load i64, ptr %4, align 8
  %292 = add i64 24, %291
  %293 = add i64 %292, 1
  %294 = add i64 %293, 8
  %295 = sub i64 %294, 1
  %296 = and i64 %295, -8
  %297 = icmp ule i64 %296, 640
  br i1 %297, label %298, label %300

298:                                              ; preds = %290
  %299 = call noalias ptr @_emalloc_640() #13
  br label %434

300:                                              ; preds = %290
  %301 = load i64, ptr %4, align 8
  %302 = add i64 24, %301
  %303 = add i64 %302, 1
  %304 = add i64 %303, 8
  %305 = sub i64 %304, 1
  %306 = and i64 %305, -8
  %307 = icmp ule i64 %306, 768
  br i1 %307, label %308, label %310

308:                                              ; preds = %300
  %309 = call noalias ptr @_emalloc_768() #13
  br label %432

310:                                              ; preds = %300
  %311 = load i64, ptr %4, align 8
  %312 = add i64 24, %311
  %313 = add i64 %312, 1
  %314 = add i64 %313, 8
  %315 = sub i64 %314, 1
  %316 = and i64 %315, -8
  %317 = icmp ule i64 %316, 896
  br i1 %317, label %318, label %320

318:                                              ; preds = %310
  %319 = call noalias ptr @_emalloc_896() #13
  br label %430

320:                                              ; preds = %310
  %321 = load i64, ptr %4, align 8
  %322 = add i64 24, %321
  %323 = add i64 %322, 1
  %324 = add i64 %323, 8
  %325 = sub i64 %324, 1
  %326 = and i64 %325, -8
  %327 = icmp ule i64 %326, 1024
  br i1 %327, label %328, label %330

328:                                              ; preds = %320
  %329 = call noalias ptr @_emalloc_1024() #13
  br label %428

330:                                              ; preds = %320
  %331 = load i64, ptr %4, align 8
  %332 = add i64 24, %331
  %333 = add i64 %332, 1
  %334 = add i64 %333, 8
  %335 = sub i64 %334, 1
  %336 = and i64 %335, -8
  %337 = icmp ule i64 %336, 1280
  br i1 %337, label %338, label %340

338:                                              ; preds = %330
  %339 = call noalias ptr @_emalloc_1280() #13
  br label %426

340:                                              ; preds = %330
  %341 = load i64, ptr %4, align 8
  %342 = add i64 24, %341
  %343 = add i64 %342, 1
  %344 = add i64 %343, 8
  %345 = sub i64 %344, 1
  %346 = and i64 %345, -8
  %347 = icmp ule i64 %346, 1536
  br i1 %347, label %348, label %350

348:                                              ; preds = %340
  %349 = call noalias ptr @_emalloc_1536() #13
  br label %424

350:                                              ; preds = %340
  %351 = load i64, ptr %4, align 8
  %352 = add i64 24, %351
  %353 = add i64 %352, 1
  %354 = add i64 %353, 8
  %355 = sub i64 %354, 1
  %356 = and i64 %355, -8
  %357 = icmp ule i64 %356, 1792
  br i1 %357, label %358, label %360

358:                                              ; preds = %350
  %359 = call noalias ptr @_emalloc_1792() #13
  br label %422

360:                                              ; preds = %350
  %361 = load i64, ptr %4, align 8
  %362 = add i64 24, %361
  %363 = add i64 %362, 1
  %364 = add i64 %363, 8
  %365 = sub i64 %364, 1
  %366 = and i64 %365, -8
  %367 = icmp ule i64 %366, 2048
  br i1 %367, label %368, label %370

368:                                              ; preds = %360
  %369 = call noalias ptr @_emalloc_2048() #13
  br label %420

370:                                              ; preds = %360
  %371 = load i64, ptr %4, align 8
  %372 = add i64 24, %371
  %373 = add i64 %372, 1
  %374 = add i64 %373, 8
  %375 = sub i64 %374, 1
  %376 = and i64 %375, -8
  %377 = icmp ule i64 %376, 2560
  br i1 %377, label %378, label %380

378:                                              ; preds = %370
  %379 = call noalias ptr @_emalloc_2560() #13
  br label %418

380:                                              ; preds = %370
  %381 = load i64, ptr %4, align 8
  %382 = add i64 24, %381
  %383 = add i64 %382, 1
  %384 = add i64 %383, 8
  %385 = sub i64 %384, 1
  %386 = and i64 %385, -8
  %387 = icmp ule i64 %386, 3072
  br i1 %387, label %388, label %390

388:                                              ; preds = %380
  %389 = call noalias ptr @_emalloc_3072() #13
  br label %416

390:                                              ; preds = %380
  %391 = load i64, ptr %4, align 8
  %392 = add i64 24, %391
  %393 = add i64 %392, 1
  %394 = add i64 %393, 8
  %395 = sub i64 %394, 1
  %396 = and i64 %395, -8
  %397 = icmp ule i64 %396, 2093056
  br i1 %397, label %398, label %406

398:                                              ; preds = %390
  %399 = load i64, ptr %4, align 8
  %400 = add i64 24, %399
  %401 = add i64 %400, 1
  %402 = add i64 %401, 8
  %403 = sub i64 %402, 1
  %404 = and i64 %403, -8
  %405 = call noalias ptr @_emalloc_large(i64 noundef %404) #15
  br label %414

406:                                              ; preds = %390
  %407 = load i64, ptr %4, align 8
  %408 = add i64 24, %407
  %409 = add i64 %408, 1
  %410 = add i64 %409, 8
  %411 = sub i64 %410, 1
  %412 = and i64 %411, -8
  %413 = call noalias ptr @_emalloc_huge(i64 noundef %412) #15
  br label %414

414:                                              ; preds = %406, %398
  %415 = phi ptr [ %405, %398 ], [ %413, %406 ]
  br label %416

416:                                              ; preds = %414, %388
  %417 = phi ptr [ %389, %388 ], [ %415, %414 ]
  br label %418

418:                                              ; preds = %416, %378
  %419 = phi ptr [ %379, %378 ], [ %417, %416 ]
  br label %420

420:                                              ; preds = %418, %368
  %421 = phi ptr [ %369, %368 ], [ %419, %418 ]
  br label %422

422:                                              ; preds = %420, %358
  %423 = phi ptr [ %359, %358 ], [ %421, %420 ]
  br label %424

424:                                              ; preds = %422, %348
  %425 = phi ptr [ %349, %348 ], [ %423, %422 ]
  br label %426

426:                                              ; preds = %424, %338
  %427 = phi ptr [ %339, %338 ], [ %425, %424 ]
  br label %428

428:                                              ; preds = %426, %328
  %429 = phi ptr [ %329, %328 ], [ %427, %426 ]
  br label %430

430:                                              ; preds = %428, %318
  %431 = phi ptr [ %319, %318 ], [ %429, %428 ]
  br label %432

432:                                              ; preds = %430, %308
  %433 = phi ptr [ %309, %308 ], [ %431, %430 ]
  br label %434

434:                                              ; preds = %432, %298
  %435 = phi ptr [ %299, %298 ], [ %433, %432 ]
  br label %436

436:                                              ; preds = %434, %288
  %437 = phi ptr [ %289, %288 ], [ %435, %434 ]
  br label %438

438:                                              ; preds = %436, %278
  %439 = phi ptr [ %279, %278 ], [ %437, %436 ]
  br label %440

440:                                              ; preds = %438, %268
  %441 = phi ptr [ %269, %268 ], [ %439, %438 ]
  br label %442

442:                                              ; preds = %440, %258
  %443 = phi ptr [ %259, %258 ], [ %441, %440 ]
  br label %444

444:                                              ; preds = %442, %248
  %445 = phi ptr [ %249, %248 ], [ %443, %442 ]
  br label %446

446:                                              ; preds = %444, %238
  %447 = phi ptr [ %239, %238 ], [ %445, %444 ]
  br label %448

448:                                              ; preds = %446, %228
  %449 = phi ptr [ %229, %228 ], [ %447, %446 ]
  br label %450

450:                                              ; preds = %448, %218
  %451 = phi ptr [ %219, %218 ], [ %449, %448 ]
  br label %452

452:                                              ; preds = %450, %208
  %453 = phi ptr [ %209, %208 ], [ %451, %450 ]
  br label %454

454:                                              ; preds = %452, %198
  %455 = phi ptr [ %199, %198 ], [ %453, %452 ]
  br label %456

456:                                              ; preds = %454, %188
  %457 = phi ptr [ %189, %188 ], [ %455, %454 ]
  br label %458

458:                                              ; preds = %456, %178
  %459 = phi ptr [ %179, %178 ], [ %457, %456 ]
  br label %460

460:                                              ; preds = %458, %168
  %461 = phi ptr [ %169, %168 ], [ %459, %458 ]
  br label %462

462:                                              ; preds = %460, %158
  %463 = phi ptr [ %159, %158 ], [ %461, %460 ]
  br label %464

464:                                              ; preds = %462, %148
  %465 = phi ptr [ %149, %148 ], [ %463, %462 ]
  br label %466

466:                                              ; preds = %464, %138
  %467 = phi ptr [ %139, %138 ], [ %465, %464 ]
  br label %468

468:                                              ; preds = %466, %128
  %469 = phi ptr [ %129, %128 ], [ %467, %466 ]
  br label %470

470:                                              ; preds = %468, %118
  %471 = phi ptr [ %119, %118 ], [ %469, %468 ]
  br label %472

472:                                              ; preds = %470, %108
  %473 = phi ptr [ %109, %108 ], [ %471, %470 ]
  br label %474

474:                                              ; preds = %472, %98
  %475 = phi ptr [ %99, %98 ], [ %473, %472 ]
  br label %484

476:                                              ; preds = %82
  %477 = load i64, ptr %4, align 8
  %478 = add i64 24, %477
  %479 = add i64 %478, 1
  %480 = add i64 %479, 8
  %481 = sub i64 %480, 1
  %482 = and i64 %481, -8
  %483 = call noalias ptr @_emalloc(i64 noundef %482) #15
  br label %484

484:                                              ; preds = %476, %474
  %485 = phi ptr [ %475, %474 ], [ %483, %476 ]
  br label %486

486:                                              ; preds = %484, %74
  %487 = phi ptr [ %81, %74 ], [ %485, %484 ]
  store ptr %487, ptr %6, align 8
  %488 = load ptr, ptr %6, align 8
  store ptr %488, ptr %2, align 8
  store i32 1, ptr %3, align 4
  %489 = load i32, ptr %3, align 4
  %490 = load ptr, ptr %2, align 8
  store i32 %489, ptr %490, align 4
  %491 = load i8, ptr %5, align 1
  %492 = trunc i8 %491 to i1
  %493 = select i1 %492, i32 128, i32 0
  %494 = or i32 22, %493
  %495 = load ptr, ptr %6, align 8
  %496 = getelementptr inbounds %struct._zend_refcounted_h, ptr %495, i32 0, i32 1
  store i32 %494, ptr %496, align 4
  %497 = load ptr, ptr %6, align 8
  %498 = getelementptr inbounds %struct._zend_string, ptr %497, i32 0, i32 1
  store i64 0, ptr %498, align 8
  %499 = load i64, ptr %4, align 8
  %500 = load ptr, ptr %6, align 8
  %501 = getelementptr inbounds %struct._zend_string, ptr %500, i32 0, i32 2
  store i64 %499, ptr %501, align 8
  %502 = load ptr, ptr %6, align 8
  store ptr %502, ptr %11, align 8
  %503 = load ptr, ptr %11, align 8
  %504 = getelementptr inbounds %struct._zend_string, ptr %503, i32 0, i32 3
  %505 = load ptr, ptr %8, align 8
  %506 = load i64, ptr %9, align 8
  call void @llvm.memcpy.p0.p0.i64(ptr align 8 %504, ptr align 1 %505, i64 %506, i1 false)
  %507 = load ptr, ptr %11, align 8
  %508 = getelementptr inbounds %struct._zend_string, ptr %507, i32 0, i32 3
  %509 = load i64, ptr %9, align 8
  %510 = getelementptr inbounds [1 x i8], ptr %508, i64 0, i64 %509
  store i8 0, ptr %510, align 1
  %511 = load ptr, ptr %11, align 8
  store ptr %511, ptr %12, align 8
  br label %512

512:                                              ; preds = %486, %57
  %513 = load ptr, ptr %12, align 8
  %514 = load ptr, ptr %17, align 8
  %515 = getelementptr inbounds %struct._phar_metadata_tracker, ptr %514, i32 0, i32 1
  store ptr %513, ptr %515, align 8
  br label %516

516:                                              ; preds = %512, %41
  ret void
}