; Function Attrs: nounwind uwtable
define hidden void @phar_metadata_tracker_clone(ptr nocapture noundef %0) local_unnamed_addr #0 {
  %2 = getelementptr inbounds i8, ptr %0, i64 9
  %3 = load i8, ptr %2, align 1
  %.not = icmp eq i8 %3, 0
  br i1 %.not, label %8, label %4

4:                                                ; preds = %1
  %5 = load ptr, ptr %0, align 8
  %6 = load i32, ptr %5, align 4
  %7 = add i32 %6, 1
  store i32 %7, ptr %5, align 4
  br label %8

8:                                                ; preds = %1, %4
  %9 = getelementptr inbounds i8, ptr %0, i64 16
  %10 = load ptr, ptr %9, align 8
  %.not70 = icmp eq ptr %10, null
  br i1 %.not70, label %28, label %11

11:                                               ; preds = %8
  %12 = getelementptr inbounds i8, ptr %10, i64 4
  %13 = load i32, ptr %12, align 4
  %14 = and i32 %13, 64
  %.not71 = icmp eq i32 %14, 0
  br i1 %.not71, label %15, label %27

15:                                               ; preds = %11
  %16 = getelementptr inbounds i8, ptr %10, i64 24
  %17 = getelementptr inbounds i8, ptr %10, i64 16
  %18 = load i64, ptr %17, align 8
  %19 = and i64 %18, -8
  %20 = add i64 %19, 32
  %21 = tail call noalias ptr @_emalloc(i64 noundef %20) #25
  store i32 1, ptr %21, align 4
  %22 = getelementptr inbounds i8, ptr %21, i64 4
  store i32 22, ptr %22, align 4
  %23 = getelementptr inbounds i8, ptr %21, i64 8
  store i64 0, ptr %23, align 8
  %24 = getelementptr inbounds i8, ptr %21, i64 16
  store i64 %18, ptr %24, align 8
  %25 = getelementptr inbounds i8, ptr %21, i64 24
  tail call void @llvm.memcpy.p0.p0.i64(ptr nonnull align 8 %25, ptr nonnull align 1 %16, i64 %18, i1 false)
  %26 = getelementptr inbounds [1 x i8], ptr %25, i64 0, i64 %18
  store i8 0, ptr %26, align 1
  br label %27

27:                                               ; preds = %11, %15
  %.0 = phi ptr [ %21, %15 ], [ %10, %11 ]
  store ptr %.0, ptr %9, align 8
  br label %28

28:                                               ; preds = %27, %8
  ret void
}